target datalayout = "e-m:e-p270:32:32-p271:32:32-p272:64:64-i64:64-i128:128-f80:128-n8:16:32:64-S128"
target triple = "x86_64-pc-linux-gnu"

%class.CapturePreferencesFrame = type { %class.QFrame, ptr, ptr, ptr, ptr, ptr, ptr, ptr, ptr, ptr }
%class.QFrame = type { %class.QWidget }
%class.QWidget = type { %class.QObject, %class.QPaintDevice.base, ptr }
%class.QObject = type { ptr, %class.QScopedPointer }
%class.QScopedPointer = type { ptr }
%class.QPaintDevice.base = type <{ ptr, i16 }>
%class.Ui_CapturePreferencesFrame = type { ptr, ptr, ptr, ptr, ptr, ptr, ptr, ptr, ptr, ptr, ptr, ptr, ptr, ptr, ptr, ptr }
%class.QString = type { %struct.QArrayDataPointer.1 }
%struct.QArrayDataPointer.1 = type { ptr, ptr, i64 }
%class.QStringView = type { i64, ptr }

@_ZN7QString6_emptyE = external constant i16, align 2

; Function Attrs: mustprogress nounwind null_pointer_is_valid sspstrong uwtable
define linkonce_odr noundef ptr @_ZN11QStringView10castHelperI5QCharEEPKDsPKT_(ptr noundef %0) #6 comdat align 2 {
  %2 = alloca ptr, align 8
  store ptr %0, ptr %2, align 8
  %3 = load ptr, ptr %2, align 8
  ret ptr %3
}

; Function Attrs: mustprogress nounwind null_pointer_is_valid sspstrong uwtable
define linkonce_odr noundef ptr @_ZNK17QArrayDataPointerIDsE4dataEv(ptr noundef align 8 dereferenceable_or_null(24) %0) #6 comdat align 2 {
  %2 = alloca ptr, align 8
  store ptr %0, ptr %2, align 8
  %3 = load ptr, ptr %2, align 8
  %4 = getelementptr inbounds nuw %struct.QArrayDataPointer.1, ptr %3, i32 0, i32 1
  %5 = load ptr, ptr %4, align 8
  ret ptr %5
}

; Function Attrs: mustprogress nounwind null_pointer_is_valid sspstrong uwtable
define linkonce_odr noundef zeroext i1 @_ZNK17QArrayDataPointerIDsE6isNullEv(ptr noundef align 8 dereferenceable_or_null(24) %0) #6 comdat align 2 {
  %2 = alloca ptr, align 8
  store ptr %0, ptr %2, align 8
  %3 = load ptr, ptr %2, align 8
  %4 = getelementptr inbounds nuw %struct.QArrayDataPointer.1, ptr %3, i32 0, i32 1
  %5 = load ptr, ptr %4, align 8
  %6 = icmp ne ptr %5, null
  %7 = xor i1 %6, true
  ret i1 %7
}

; Function Attrs: mustprogress nounwind null_pointer_is_valid sspstrong uwtable
define linkonce_odr noundef ptr @_ZNK17QArrayDataPointerIDsEptEv(ptr noundef align 8 dereferenceable_or_null(24) %0) #6 comdat align 2 {
  %2 = alloca ptr, align 8
  store ptr %0, ptr %2, align 8
  %3 = load ptr, ptr %2, align 8
  ret ptr %3
}

; Function Attrs: noinline noreturn nounwind null_pointer_is_valid sspstrong uwtable
define linkonce_odr hidden void @__clang_call_terminate(ptr noundef %0) #11 comdat {
  %2 = call ptr @__cxa_begin_catch(ptr %0) #16
  call void @_ZSt9terminatev() #19
  unreachable
}

; Function Attrs: mustprogress nounwind null_pointer_is_valid sspstrong uwtable
define linkonce_odr void @_ZN11QStringViewC2I5QCharTnNSt9enable_ifIXsr9QtPrivate20IsCompatibleCharTypeIT_EE5valueEbE4typeELb1EEEPKS3_x(ptr noundef align 8 dereferenceable_or_null(16) %0, ptr noundef %1, i64 noundef %2) unnamed_addr #6 comdat align 2 {
  %4 = alloca ptr, align 8
  %5 = alloca ptr, align 8
  %6 = alloca i64, align 8
  store ptr %0, ptr %4, align 8
  store ptr %1, ptr %5, align 8
  store i64 %2, ptr %6, align 8
  %7 = load ptr, ptr %4, align 8
  %8 = getelementptr inbounds nuw %class.QStringView, ptr %7, i32 0, i32 0
  %9 = load i64, ptr %6, align 8
  store i64 %9, ptr %8, align 8
  %10 = getelementptr inbounds nuw %class.QStringView, ptr %7, i32 0, i32 1
  %11 = load ptr, ptr %5, align 8
  %12 = call noundef ptr @_ZN11QStringView10castHelperI5QCharEEPKDsPKT_(ptr noundef %11) #16
  store ptr %12, ptr %10, align 8
  ret void
}

; Function Attrs: inlinehint mustprogress nounwind null_pointer_is_valid sspstrong uwtable
define linkonce_odr noundef i64 @_ZNK7QString4sizeEv(ptr noundef align 8 dereferenceable_or_null(24) %0) #1 comdat align 2 {
  %2 = alloca ptr, align 8
  store ptr %0, ptr %2, align 8
  %3 = load ptr, ptr %2, align 8
  %4 = getelementptr inbounds nuw %class.QString, ptr %3, i32 0, i32 0
  %5 = getelementptr inbounds nuw %struct.QArrayDataPointer.1, ptr %4, i32 0, i32 2
  %6 = load i64, ptr %5, align 8
  ret i64 %6
}

; Function Attrs: inlinehint mustprogress nounwind null_pointer_is_valid sspstrong uwtable
define linkonce_odr noundef ptr @_ZNK7QString4dataEv(ptr noundef align 8 dereferenceable_or_null(24) %0) #1 comdat align 2 {
  %2 = alloca ptr, align 8
  store ptr %0, ptr %2, align 8
  %3 = load ptr, ptr %2, align 8
  %4 = getelementptr inbounds nuw %class.QString, ptr %3, i32 0, i32 0
  %5 = call noundef ptr @_ZNK17QArrayDataPointerIDsE4dataEv(ptr noundef align 8 dereferenceable_or_null(24) %4) #16
  %6 = icmp ne ptr %5, null
  br i1 %6, label %7, label %10

7:                                                ; preds = %1
  %8 = getelementptr inbounds nuw %class.QString, ptr %3, i32 0, i32 0
  %9 = call noundef ptr @_ZNK17QArrayDataPointerIDsE4dataEv(ptr noundef align 8 dereferenceable_or_null(24) %8) #16
  br label %11

10:                                               ; preds = %1
  br label %11

11:                                               ; preds = %10, %7
  %12 = phi ptr [ %9, %7 ], [ @_ZN7QString6_emptyE, %10 ]
  ret ptr %12
}

; Function Attrs: inlinehint mustprogress nounwind null_pointer_is_valid sspstrong uwtable
define linkonce_odr noundef zeroext i1 @_ZNK7QString6isNullEv(ptr noundef align 8 dereferenceable_or_null(24) %0) #1 comdat align 2 {
  %2 = alloca ptr, align 8
  store ptr %0, ptr %2, align 8
  %3 = load ptr, ptr %2, align 8
  %4 = getelementptr inbounds nuw %class.QString, ptr %3, i32 0, i32 0
  %5 = call noundef ptr @_ZNK17QArrayDataPointerIDsEptEv(ptr noundef align 8 dereferenceable_or_null(24) %4) #16
  %6 = call noundef zeroext i1 @_ZNK17QArrayDataPointerIDsE6isNullEv(ptr noundef align 8 dereferenceable_or_null(24) %5) #16
  ret i1 %6
}

; Function Attrs: mustprogress null_pointer_is_valid sspstrong uwtable
define linkonce_odr noundef i32 @_ZN7QString17toIntegral_helperIjEET_11QStringViewPbi(i64 %0, ptr %1, ptr noundef %2, i32 noundef %3) #0 comdat align 2 {
  %5 = alloca %class.QStringView, align 8
  %6 = alloca ptr, align 8
  %7 = alloca i32, align 4
  %8 = alloca i64, align 8
  %9 = alloca %class.QStringView, align 8
  %10 = getelementptr inbounds nuw { i64, ptr }, ptr %5, i32 0, i32 0
  store i64 %0, ptr %10, align 8
  %11 = getelementptr inbounds nuw { i64, ptr }, ptr %5, i32 0, i32 1
  store ptr %1, ptr %11, align 8
  store ptr %2, ptr %6, align 8
  store i32 %3, ptr %7, align 4
  call void @llvm.lifetime.start.p0(i64 8, ptr %8) #16
  call void @llvm.memcpy.p0.p0.i64(ptr align 8 %9, ptr align 8 %5, i64 16, i1 false)
  %12 = load ptr, ptr %6, align 8
  %13 = load i32, ptr %7, align 4
  %14 = getelementptr inbounds nuw { i64, ptr }, ptr %9, i32 0, i32 0
  %15 = load i64, ptr %14, align 8
  %16 = getelementptr inbounds nuw { i64, ptr }, ptr %9, i32 0, i32 1
  %17 = load ptr, ptr %16, align 8
  %18 = call noundef i64 @_ZN7QString17toIntegral_helperE11QStringViewPbj(i64 %15, ptr %17, ptr noundef %12, i32 noundef %13)
  store i64 %18, ptr %8, align 8
  %19 = load i64, ptr %8, align 8
  %20 = trunc i64 %19 to i32
  %21 = zext i32 %20 to i64
  %22 = load i64, ptr %8, align 8
  %23 = icmp ne i64 %21, %22
  br i1 %23, label %24, label %30

24:                                               ; preds = %4
  %25 = load ptr, ptr %6, align 8
  %26 = icmp ne ptr %25, null
  br i1 %26, label %27, label %29

27:                                               ; preds = %24
  %28 = load ptr, ptr %6, align 8
  store i8 0, ptr %28, align 1
  br label %29

29:                                               ; preds = %27, %24
  store i64 0, ptr %8, align 8
  br label %30

30:                                               ; preds = %29, %4
  %31 = load i64, ptr %8, align 8
  %32 = trunc i64 %31 to i32
  call void @llvm.lifetime.end.p0(i64 8, ptr %8) #16
  ret i32 %32
}

; Function Attrs: mustprogress nounwind null_pointer_is_valid sspstrong uwtable
define linkonce_odr void @_ZN11QStringViewC2I7QStringTnNSt9enable_ifIXsr3std7is_sameIT_S1_EE5valueEbE4typeELb1EEERKS3_(ptr noundef align 8 dereferenceable_or_null(16) %0, ptr noundef align 8 dereferenceable(24) %1) unnamed_addr #6 comdat align 2 personality ptr @__gxx_personality_v0 {
  %3 = alloca ptr, align 8
  %4 = alloca ptr, align 8
  store ptr %0, ptr %3, align 8
  store ptr %1, ptr %4, align 8
  %5 = load ptr, ptr %3, align 8
  %6 = load ptr, ptr %4, align 8
  %7 = invoke noundef zeroext i1 @_ZNK7QString6isNullEv(ptr noundef align 8 dereferenceable_or_null(24) %6)
          to label %8 unwind label %20

8:                                                ; preds = %2
  br i1 %7, label %9, label %10

9:                                                ; preds = %8
  br label %14

10:                                               ; preds = %8
  %11 = load ptr, ptr %4, align 8
  %12 = invoke noundef ptr @_ZNK7QString4dataEv(ptr noundef align 8 dereferenceable_or_null(24) %11)
          to label %13 unwind label %20

13:                                               ; preds = %10
  br label %14

14:                                               ; preds = %13, %9
  %15 = phi ptr [ null, %9 ], [ %12, %13 ]
  %16 = load ptr, ptr %4, align 8
  %17 = invoke noundef i64 @_ZNK7QString4sizeEv(ptr noundef align 8 dereferenceable_or_null(24) %16)
          to label %18 unwind label %20

18:                                               ; preds = %14
  invoke void @_ZN11QStringViewC2I5QCharTnNSt9enable_ifIXsr9QtPrivate20IsCompatibleCharTypeIT_EE5valueEbE4typeELb1EEEPKS3_x(ptr noundef align 8 dereferenceable_or_null(16) %5, ptr noundef %15, i64 noundef %17)
          to label %19 unwind label %20

19:                                               ; preds = %18
  ret void

20:                                               ; preds = %18, %14, %10, %2
  %21 = landingpad { ptr, i32 }
          catch ptr null
  %22 = extractvalue { ptr, i32 } %21, 0
  call void @__clang_call_terminate(ptr %22) #19
  unreachable
}

; Function Attrs: mustprogress null_pointer_is_valid sspstrong uwtable
define linkonce_odr noundef i32 @_ZNK7QString6toUIntEPbi(ptr noundef align 8 dereferenceable_or_null(24) %0, ptr noundef %1, i32 noundef %2) #0 comdat align 2 {
  %4 = alloca ptr, align 8
  %5 = alloca ptr, align 8
  %6 = alloca i32, align 4
  %7 = alloca %class.QStringView, align 8
  store ptr %0, ptr %4, align 8
  store ptr %1, ptr %5, align 8
  store i32 %2, ptr %6, align 4
  %8 = load ptr, ptr %4, align 8
  call void @_ZN11QStringViewC2I7QStringTnNSt9enable_ifIXsr3std7is_sameIT_S1_EE5valueEbE4typeELb1EEERKS3_(ptr noundef align 8 dereferenceable_or_null(16) %7, ptr noundef align 8 dereferenceable(24) %8) #16
  %9 = load ptr, ptr %5, align 8
  %10 = load i32, ptr %6, align 4
  %11 = getelementptr inbounds nuw { i64, ptr }, ptr %7, i32 0, i32 0
  %12 = load i64, ptr %11, align 8
  %13 = getelementptr inbounds nuw { i64, ptr }, ptr %7, i32 0, i32 1
  %14 = load ptr, ptr %13, align 8
  %15 = call noundef i32 @_ZN7QString17toIntegral_helperIjEET_11QStringViewPbi(i64 %12, ptr %14, ptr noundef %9, i32 noundef %10)
  ret i32 %15
}

; Function Attrs: inlinehint mustprogress nounwind null_pointer_is_valid sspstrong uwtable
define linkonce_odr noundef zeroext i1 @_ZNK7QString7isEmptyEv(ptr noundef align 8 dereferenceable_or_null(24) %0) #1 comdat align 2 {
  %2 = alloca ptr, align 8
  store ptr %0, ptr %2, align 8
  %3 = load ptr, ptr %2, align 8
  %4 = getelementptr inbounds nuw %class.QString, ptr %3, i32 0, i32 0
  %5 = getelementptr inbounds nuw %struct.QArrayDataPointer.1, ptr %4, i32 0, i32 2
  %6 = load i64, ptr %5, align 8
  %7 = icmp eq i64 %6, 0
  ret i1 %7
}

; Function Attrs: mustprogress null_pointer_is_valid sspstrong uwtable
define void @_ZN23CapturePreferencesFrame44on_captureUpdateIntervalLineEdit_textChangedERK7QString(ptr noundef align 8 dereferenceable_or_null(112) %0, ptr noundef align 8 dereferenceable(24) %1) #0 align 2 {
  %3 = alloca ptr, align 8
  %4 = alloca ptr, align 8
  %5 = alloca i32, align 4
  %6 = alloca i32, align 4
  %7 = alloca i8, align 1
  store ptr %0, ptr %3, align 8
  store ptr %1, ptr %4, align 8
  %8 = load ptr, ptr %3, align 8
  call void @llvm.lifetime.start.p0(i64 4, ptr %5) #16
  %9 = load ptr, ptr %4, align 8
  %10 = call noundef zeroext i1 @_ZNK7QString7isEmptyEv(ptr noundef align 8 dereferenceable_or_null(24) %9)
  br i1 %10, label %11, label %23

11:                                               ; preds = %2
  %12 = getelementptr inbounds nuw %class.CapturePreferencesFrame, ptr %8, i32 0, i32 7
  %13 = load ptr, ptr %12, align 8
  %14 = call i32 @prefs_get_uint_value(ptr noundef %13, i32 noundef 0)
  store i32 %14, ptr %5, align 4
  %15 = getelementptr inbounds nuw %class.CapturePreferencesFrame, ptr %8, i32 0, i32 7
  %16 = load ptr, ptr %15, align 8
  %17 = load i32, ptr %5, align 4
  %18 = call i32 @prefs_set_uint_value(ptr noundef %16, i32 noundef %17, i32 noundef 1)
  %19 = getelementptr inbounds nuw %class.CapturePreferencesFrame, ptr %8, i32 0, i32 1
  %20 = load ptr, ptr %19, align 8
  %21 = getelementptr inbounds nuw %class.Ui_CapturePreferencesFrame, ptr %20, i32 0, i32 11
  %22 = load ptr, ptr %21, align 8
  call void @_ZN14SyntaxLineEdit14setSyntaxStateENS_11SyntaxStateE(ptr noundef align 8 dereferenceable_or_null(185) %22, i32 noundef 0)
  store i32 1, ptr %6, align 4
  br label %46

23:                                               ; preds = %2
  call void @llvm.lifetime.start.p0(i64 1, ptr %7) #16
  %24 = load ptr, ptr %4, align 8
  %25 = call noundef i32 @_ZNK7QString6toUIntEPbi(ptr noundef align 8 dereferenceable_or_null(24) %24, ptr noundef %7, i32 noundef 0)
  store i32 %25, ptr %5, align 4
  %26 = load i8, ptr %7, align 1, !range !6, !noundef !7
  %27 = trunc i8 %26 to i1
  br i1 %27, label %28, label %33

28:                                               ; preds = %23
  %29 = getelementptr inbounds nuw %class.CapturePreferencesFrame, ptr %8, i32 0, i32 1
  %30 = load ptr, ptr %29, align 8
  %31 = getelementptr inbounds nuw %class.Ui_CapturePreferencesFrame, ptr %30, i32 0, i32 11
  %32 = load ptr, ptr %31, align 8
  call void @_ZN14SyntaxLineEdit14setSyntaxStateENS_11SyntaxStateE(ptr noundef align 8 dereferenceable_or_null(185) %32, i32 noundef 4)
  br label %41

33:                                               ; preds = %23
  %34 = getelementptr inbounds nuw %class.CapturePreferencesFrame, ptr %8, i32 0, i32 7
  %35 = load ptr, ptr %34, align 8
  %36 = call i32 @prefs_get_uint_value(ptr noundef %35, i32 noundef 2)
  store i32 %36, ptr %5, align 4
  %37 = getelementptr inbounds nuw %class.CapturePreferencesFrame, ptr %8, i32 0, i32 1
  %38 = load ptr, ptr %37, align 8
  %39 = getelementptr inbounds nuw %class.Ui_CapturePreferencesFrame, ptr %38, i32 0, i32 11
  %40 = load ptr, ptr %39, align 8
  call void @_ZN14SyntaxLineEdit14setSyntaxStateENS_11SyntaxStateE(ptr noundef align 8 dereferenceable_or_null(185) %40, i32 noundef 2)
  br label %41

41:                                               ; preds = %33, %28
  %42 = getelementptr inbounds nuw %class.CapturePreferencesFrame, ptr %8, i32 0, i32 7
  %43 = load ptr, ptr %42, align 8
  %44 = load i32, ptr %5, align 4
  %45 = call i32 @prefs_set_uint_value(ptr noundef %43, i32 noundef %44, i32 noundef 1)
  call void @llvm.lifetime.end.p0(i64 1, ptr %7) #16
  store i32 0, ptr %6, align 4
  br label %46

46:                                               ; preds = %41, %11
  call void @llvm.lifetime.end.p0(i64 4, ptr %5) #16
  %47 = load i32, ptr %6, align 4
  switch i32 %47, label %49 [
    i32 0, label %48
    i32 1, label %48
  ]

48:                                               ; preds = %46, %46
  ret void

49:                                               ; preds = %46
  unreachable
}