; Function Attrs: mustprogress null_pointer_is_valid sspstrong uwtable
define void @_ZN23CapturePreferencesFrame44on_captureUpdateIntervalLineEdit_textChangedERK7QString(ptr noundef readonly align 8 captures(none) dereferenceable_or_null(112) %0, ptr noundef readonly align 8 captures(none) dereferenceable(24) %1) local_unnamed_addr #0 align 2 personality ptr @__gxx_personality_v0 {
  %3 = alloca i8, align 1
  %4 = getelementptr inbounds nuw i8, ptr %1, i64 16
  %5 = load i64, ptr %4, align 8
  %6 = icmp eq i64 %5, 0
  br i1 %6, label %7, label %17

7:                                                ; preds = %2
  %8 = getelementptr inbounds nuw i8, ptr %0, i64 88
  %9 = load ptr, ptr %8, align 8
  %10 = tail call i32 @prefs_get_uint_value(ptr noundef %9, i32 noundef 0)
  %11 = load ptr, ptr %8, align 8
  %12 = tail call i32 @prefs_set_uint_value(ptr noundef %11, i32 noundef %10, i32 noundef 1)
  %13 = getelementptr inbounds nuw i8, ptr %0, i64 40
  %14 = load ptr, ptr %13, align 8
  %15 = getelementptr inbounds nuw i8, ptr %14, i64 88
  %16 = load ptr, ptr %15, align 8
  tail call void @_ZN14SyntaxLineEdit14setSyntaxStateENS_11SyntaxStateE(ptr noundef align 8 dereferenceable_or_null(185) %16, i32 noundef 0)
  br label %35

17:                                               ; preds = %2
  call void @llvm.lifetime.start.p0(i64 1, ptr nonnull %3) #9
  %18 = getelementptr inbounds nuw i8, ptr %1, i64 8
  %19 = load ptr, ptr %18, align 8
  %20 = call noundef i64 @_ZN7QString17toIntegral_helperE11QStringViewPbj(i64 %5, ptr %19, ptr noundef nonnull %3, i32 noundef 0)
  %.not.i.i = icmp ult i64 %20, 4294967296
  br i1 %.not.i.i, label %_ZNK7QString6toUIntEPbi.exit, label %_ZNK7QString6toUIntEPbi.exit.thread

_ZNK7QString6toUIntEPbi.exit.thread:              ; preds = %17
  store i8 0, ptr %3, align 1
  br label %23

_ZNK7QString6toUIntEPbi.exit:                     ; preds = %17
  %.pre = load i8, ptr %3, align 1, !range !6
  %21 = trunc nuw i8 %.pre to i1
  %22 = trunc nuw i64 %20 to i32
  br i1 %21, label %27, label %23

23:                                               ; preds = %_ZNK7QString6toUIntEPbi.exit.thread, %_ZNK7QString6toUIntEPbi.exit
  %24 = getelementptr inbounds nuw i8, ptr %0, i64 88
  %25 = load ptr, ptr %24, align 8
  %26 = call i32 @prefs_get_uint_value(ptr noundef %25, i32 noundef 2)
  br label %27

27:                                               ; preds = %_ZNK7QString6toUIntEPbi.exit, %23
  %.sink5 = phi i32 [ 2, %23 ], [ 4, %_ZNK7QString6toUIntEPbi.exit ]
  %.0 = phi i32 [ %26, %23 ], [ %22, %_ZNK7QString6toUIntEPbi.exit ]
  %28 = getelementptr inbounds nuw i8, ptr %0, i64 40
  %29 = load ptr, ptr %28, align 8
  %30 = getelementptr inbounds nuw i8, ptr %29, i64 88
  %31 = load ptr, ptr %30, align 8
  call void @_ZN14SyntaxLineEdit14setSyntaxStateENS_11SyntaxStateE(ptr noundef align 8 dereferenceable_or_null(185) %31, i32 noundef %.sink5)
  %32 = getelementptr inbounds nuw i8, ptr %0, i64 88
  %33 = load ptr, ptr %32, align 8
  %34 = call i32 @prefs_set_uint_value(ptr noundef %33, i32 noundef %.0, i32 noundef 1)
  call void @llvm.lifetime.end.p0(i64 1, ptr nonnull %3) #9
  br label %35

35:                                               ; preds = %27, %7
  ret void
}